; Function Attrs: nounwind uwtable
define hidden void @je_pages_unmap(ptr noundef %0, i64 noundef %1) local_unnamed_addr #0 {
  %3 = alloca [64 x i8], align 16
  %4 = tail call i32 @munmap(ptr noundef %0, i64 noundef %1) #8
  %5 = icmp eq i32 %4, -1
  br i1 %5, label %6, label %os_pages_unmap.exit

6:                                                ; preds = %2
  call void @llvm.lifetime.start.p0(i64 64, ptr nonnull %3) #8
  %7 = tail call ptr @__errno_location() #9
  %8 = load i32, ptr %7, align 4, !tbaa !4
  %9 = call i32 @je_buferror(i32 noundef %8, ptr noundef nonnull %3, i64 noundef 64) #8
  call void (ptr, ...) @je_malloc_printf(ptr noundef nonnull @.str.7, ptr noundef nonnull %3) #8
  %10 = load i8, ptr @je_opt_abort, align 1, !tbaa !8, !range !10, !noundef !11
  %11 = trunc nuw i8 %10 to i1
  br i1 %11, label %12, label %13

12:                                               ; preds = %6
  call void @abort() #10
  unreachable

13:                                               ; preds = %6
  call void @llvm.lifetime.end.p0(i64 64, ptr nonnull %3) #8
  br label %os_pages_unmap.exit

os_pages_unmap.exit:                              ; preds = %2, %13
  ret void
}